target datalayout = "e-m:e-p270:32:32-p271:32:32-p272:64:64-i64:64-i128:128-f80:128-n8:16:32:64-S128"
target triple = "x86_64-unknown-linux-gnu"

%struct.QString = type { %struct.QObjectBase_, ptr }
%struct.QObjectBase_ = type { i32, i64 }

@.str.1 = private unnamed_addr constant [7 x i8] c"config\00", align 1
@.str.10 = private unnamed_addr constant [10 x i8] c"blkdebug:\00", align 1
@.str.11 = private unnamed_addr constant [8 x i8] c"x-image\00", align 1
@.str.12 = private unnamed_addr constant [25 x i8] c"../qemu/block/blkdebug.c\00", align 1
@__func__.blkdebug_parse_filename = private unnamed_addr constant [24 x i8] c"blkdebug_parse_filename\00", align 1
@.str.13 = private unnamed_addr constant [50 x i8] c"blkdebug requires both config file and image path\00", align 1

; Function Attrs: nounwind sspstrong uwtable
define internal void @blkdebug_parse_filename(ptr noundef %filename, ptr noundef %options, ptr noundef %errp) #0 {
entry:
  %filename.addr = alloca ptr, align 8
  %options.addr = alloca ptr, align 8
  %errp.addr = alloca ptr, align 8
  %c = alloca ptr, align 8
  %config_path = alloca ptr, align 8
  %_obj4 = alloca ptr, align 8
  %tmp = alloca ptr, align 8
  %__mptr = alloca ptr, align 8
  %tmp8 = alloca ptr, align 8
  store ptr %filename, ptr %filename.addr, align 8
  store ptr %options, ptr %options.addr, align 8
  store ptr %errp, ptr %errp.addr, align 8
  %0 = load ptr, ptr %filename.addr, align 8
  %call = call i32 @strstart(ptr noundef %0, ptr noundef @.str.10, ptr noundef %filename.addr)
  %tobool = icmp ne i32 %call, 0
  br i1 %tobool, label %if.end, label %if.then

if.then:                                          ; preds = %entry
  %1 = load ptr, ptr %options.addr, align 8
  %2 = load ptr, ptr %filename.addr, align 8
  call void @qdict_put_str(ptr noundef %1, ptr noundef @.str.11, ptr noundef %2)
  br label %return

if.end:                                           ; preds = %entry
  %3 = load ptr, ptr %filename.addr, align 8
  %call1 = call ptr @strchr(ptr noundef %3, i32 noundef 58) #11
  store ptr %call1, ptr %c, align 8
  %4 = load ptr, ptr %c, align 8
  %cmp = icmp eq ptr %4, null
  br i1 %cmp, label %if.then2, label %if.end3

if.then2:                                         ; preds = %if.end
  %5 = load ptr, ptr %errp.addr, align 8
  call void (ptr, ptr, i32, ptr, ptr, ...) @error_setg_internal(ptr noundef %5, ptr noundef @.str.12, i32 noundef 350, ptr noundef @__func__.blkdebug_parse_filename, ptr noundef @.str.13)
  br label %return

if.end3:                                          ; preds = %if.end
  %6 = load ptr, ptr %c, align 8
  %7 = load ptr, ptr %filename.addr, align 8
  %cmp4 = icmp ne ptr %6, %7
  br i1 %cmp4, label %if.then5, label %if.end9

if.then5:                                         ; preds = %if.end3
  %8 = load ptr, ptr %filename.addr, align 8
  %9 = load ptr, ptr %c, align 8
  %10 = load ptr, ptr %filename.addr, align 8
  %sub.ptr.lhs.cast = ptrtoint ptr %9 to i64
  %sub.ptr.rhs.cast = ptrtoint ptr %10 to i64
  %sub.ptr.sub = sub i64 %sub.ptr.lhs.cast, %sub.ptr.rhs.cast
  %call6 = call ptr @qstring_from_substr(ptr noundef %8, i64 noundef 0, i64 noundef %sub.ptr.sub)
  store ptr %call6, ptr %config_path, align 8
  %11 = load ptr, ptr %options.addr, align 8
  %12 = load ptr, ptr %config_path, align 8
  store ptr %12, ptr %_obj4, align 8
  %13 = load ptr, ptr %_obj4, align 8
  %tobool7 = icmp ne ptr %13, null
  br i1 %tobool7, label %cond.true, label %cond.false

cond.true:                                        ; preds = %if.then5
  %14 = load ptr, ptr %_obj4, align 8
  %base = getelementptr inbounds %struct.QString, ptr %14, i32 0, i32 0
  store ptr %base, ptr %__mptr, align 8
  %15 = load ptr, ptr %__mptr, align 8
  %add.ptr = getelementptr i8, ptr %15, i64 0
  store ptr %add.ptr, ptr %tmp8, align 8
  %16 = load ptr, ptr %tmp8, align 8
  br label %cond.end

cond.false:                                       ; preds = %if.then5
  br label %cond.end

cond.end:                                         ; preds = %cond.false, %cond.true
  %cond = phi ptr [ %16, %cond.true ], [ null, %cond.false ]
  store ptr %cond, ptr %tmp, align 8
  %17 = load ptr, ptr %tmp, align 8
  call void @qdict_put_obj(ptr noundef %11, ptr noundef @.str.1, ptr noundef %17)
  br label %if.end9

if.end9:                                          ; preds = %cond.end, %if.end3
  %18 = load ptr, ptr %c, align 8
  %add.ptr10 = getelementptr i8, ptr %18, i64 1
  store ptr %add.ptr10, ptr %filename.addr, align 8
  %19 = load ptr, ptr %options.addr, align 8
  %20 = load ptr, ptr %filename.addr, align 8
  call void @qdict_put_str(ptr noundef %19, ptr noundef @.str.11, ptr noundef %20)
  br label %return

return:                                           ; preds = %if.end9, %if.then2, %if.then
  ret void
}