; Function Attrs: nounwind sspstrong uwtable
define internal void @blkdebug_parse_filename(ptr noundef %filename, ptr noundef %options, ptr noundef %errp) #0 {
entry:
  %filename.addr = alloca ptr, align 8
  store ptr %filename, ptr %filename.addr, align 8
  %call = call i32 @strstart(ptr noundef %filename, ptr noundef nonnull @.str.10, ptr noundef nonnull %filename.addr) #13
  %tobool.not = icmp eq i32 %call, 0
  %0 = load ptr, ptr %filename.addr, align 8
  br i1 %tobool.not, label %if.then, label %if.end

if.then:                                          ; preds = %entry
  call void @qdict_put_str(ptr noundef %options, ptr noundef nonnull @.str.11, ptr noundef %0) #13
  br label %return

if.end:                                           ; preds = %entry
  %call1 = call ptr @strchr(ptr noundef nonnull dereferenceable(1) %0, i32 noundef 58) #14
  %cmp = icmp eq ptr %call1, null
  br i1 %cmp, label %if.then2, label %if.end3

if.then2:                                         ; preds = %if.end
  call void (ptr, ptr, i32, ptr, ptr, ...) @error_setg_internal(ptr noundef %errp, ptr noundef nonnull @.str.12, i32 noundef 350, ptr noundef nonnull @__func__.blkdebug_parse_filename, ptr noundef nonnull @.str.13) #13
  br label %return

if.end3:                                          ; preds = %if.end
  %cmp4.not = icmp eq ptr %call1, %0
  br i1 %cmp4.not, label %if.end9, label %if.then5

if.then5:                                         ; preds = %if.end3
  %sub.ptr.lhs.cast = ptrtoint ptr %call1 to i64
  %sub.ptr.rhs.cast = ptrtoint ptr %0 to i64
  %sub.ptr.sub = sub i64 %sub.ptr.lhs.cast, %sub.ptr.rhs.cast
  %call6 = call ptr @qstring_from_substr(ptr noundef nonnull %0, i64 noundef 0, i64 noundef %sub.ptr.sub) #13
  call void @qdict_put_obj(ptr noundef %options, ptr noundef nonnull @.str.1, ptr noundef %call6) #13
  br label %if.end9

if.end9:                                          ; preds = %if.then5, %if.end3
  %add.ptr10 = getelementptr i8, ptr %call1, i64 1
  store ptr %add.ptr10, ptr %filename.addr, align 8
  call void @qdict_put_str(ptr noundef %options, ptr noundef nonnull @.str.11, ptr noundef %add.ptr10) #13
  br label %return

return:                                           ; preds = %if.end9, %if.then2, %if.then
  ret void
}